target datalayout = "e-m:e-p270:32:32-p271:32:32-p272:64:64-i64:64-i128:128-f80:128-n8:16:32:64-S128"
target triple = "x86_64-pc-linux-gnu"

@.str.1 = private unnamed_addr constant [29 x i8] c"No list was given to fill in\00", align 1

; Function Attrs: nounwind uwtable
define internal void @_add_to_list(ptr noundef %0, ptr noundef %1, i1 noundef zeroext %2) #0 {
  %4 = alloca ptr, align 8
  %5 = alloca ptr, align 8
  %6 = alloca i8, align 1
  store ptr %0, ptr %4, align 8
  store ptr %1, ptr %5, align 8
  %7 = zext i1 %2 to i8
  store i8 %7, ptr %6, align 1
  %8 = load ptr, ptr %4, align 8
  call void @xstrtrim(ptr noundef %8)
  %9 = load i8, ptr %6, align 1, !range !16, !noundef !17
  %10 = trunc i8 %9 to i1
  br i1 %10, label %11, label %14

11:                                               ; preds = %3
  %12 = load ptr, ptr %4, align 8
  %13 = call zeroext i1 @xstrtolower(ptr noundef %12)
  br label %14

14:                                               ; preds = %11, %3
  %15 = load ptr, ptr %5, align 8
  %16 = load ptr, ptr %4, align 8
  %17 = call i32 @list_delete_all(ptr noundef %15, ptr noundef @slurm_find_char_exact_in_list, ptr noundef %16)
  %18 = load ptr, ptr %5, align 8
  %19 = load ptr, ptr %4, align 8
  call void @list_append(ptr noundef %18, ptr noundef %19)
  ret void
}

; Function Attrs: nounwind uwtable
define dso_local i32 @slurm_addto_char_list_with_case(ptr noundef %0, ptr noundef %1, i1 noundef zeroext %2) #0 {
  %4 = alloca i32, align 4
  %5 = alloca ptr, align 8
  %6 = alloca ptr, align 8
  %7 = alloca i8, align 1
  %8 = alloca i32, align 4
  %9 = alloca i32, align 4
  %10 = alloca i32, align 4
  %11 = alloca ptr, align 8
  %12 = alloca i8, align 1
  %13 = alloca i32, align 4
  %14 = alloca i8, align 1
  %15 = alloca i8, align 1
  %16 = alloca ptr, align 8
  %17 = alloca ptr, align 8
  %18 = alloca ptr, align 8
  %19 = alloca i32, align 4
  store ptr %0, ptr %5, align 8
  store ptr %1, ptr %6, align 8
  %20 = zext i1 %2 to i8
  store i8 %20, ptr %7, align 1
  call void @llvm.lifetime.start.p0(i64 4, ptr %8) #11
  store i32 0, ptr %8, align 4
  call void @llvm.lifetime.start.p0(i64 4, ptr %9) #11
  store i32 0, ptr %9, align 4
  call void @llvm.lifetime.start.p0(i64 4, ptr %10) #11
  store i32 0, ptr %10, align 4
  call void @llvm.lifetime.start.p0(i64 8, ptr %11) #11
  store ptr null, ptr %11, align 8
  call void @llvm.lifetime.start.p0(i64 1, ptr %12) #11
  store i8 0, ptr %12, align 1
  call void @llvm.lifetime.start.p0(i64 4, ptr %13) #11
  store i32 0, ptr %13, align 4
  call void @llvm.lifetime.start.p0(i64 1, ptr %14) #11
  store i8 0, ptr %14, align 1
  call void @llvm.lifetime.start.p0(i64 1, ptr %15) #11
  store i8 0, ptr %15, align 1
  call void @llvm.lifetime.start.p0(i64 8, ptr %16) #11
  call void @llvm.lifetime.start.p0(i64 8, ptr %17) #11
  call void @llvm.lifetime.start.p0(i64 8, ptr %18) #11
  %21 = load ptr, ptr %5, align 8
  %22 = icmp ne ptr %21, null
  br i1 %22, label %25, label %23

23:                                               ; preds = %3
  %24 = call i32 (ptr, ...) @error(ptr noundef @.str.1)
  store i32 0, ptr %4, align 4
  store i32 1, ptr %19, align 4
  br label %230

25:                                               ; preds = %3
  %26 = load ptr, ptr %6, align 8
  %27 = icmp ne ptr %26, null
  br i1 %27, label %28, label %227

28:                                               ; preds = %25
  %29 = load ptr, ptr %6, align 8
  %30 = load i32, ptr %8, align 4
  %31 = sext i32 %30 to i64
  %32 = getelementptr inbounds i8, ptr %29, i64 %31
  %33 = load i8, ptr %32, align 1
  %34 = sext i8 %33 to i32
  %35 = icmp eq i32 %34, 34
  br i1 %35, label %44, label %36

36:                                               ; preds = %28
  %37 = load ptr, ptr %6, align 8
  %38 = load i32, ptr %8, align 4
  %39 = sext i32 %38 to i64
  %40 = getelementptr inbounds i8, ptr %37, i64 %39
  %41 = load i8, ptr %40, align 1
  %42 = sext i8 %41 to i32
  %43 = icmp eq i32 %42, 39
  br i1 %43, label %44, label %52

44:                                               ; preds = %36, %28
  %45 = load ptr, ptr %6, align 8
  %46 = load i32, ptr %8, align 4
  %47 = sext i32 %46 to i64
  %48 = getelementptr inbounds i8, ptr %45, i64 %47
  %49 = load i8, ptr %48, align 1
  store i8 %49, ptr %12, align 1
  store i32 1, ptr %13, align 4
  %50 = load i32, ptr %8, align 4
  %51 = add nsw i32 %50, 1
  store i32 %51, ptr %8, align 4
  br label %52

52:                                               ; preds = %44, %36
  %53 = load i32, ptr %8, align 4
  store i32 %53, ptr %9, align 4
  %54 = load ptr, ptr %5, align 8
  %55 = call i32 @list_count(ptr noundef %54)
  store i32 %55, ptr %10, align 4
  br label %56

56:                                               ; preds = %199, %52
  %57 = load ptr, ptr %6, align 8
  %58 = load i32, ptr %8, align 4
  %59 = sext i32 %58 to i64
  %60 = getelementptr inbounds i8, ptr %57, i64 %59
  %61 = load i8, ptr %60, align 1
  %62 = icmp ne i8 %61, 0
  br i1 %62, label %63, label %202

63:                                               ; preds = %56
  %64 = load i32, ptr %13, align 4
  %65 = icmp ne i32 %64, 0
  br i1 %65, label %66, label %77

66:                                               ; preds = %63
  %67 = load ptr, ptr %6, align 8
  %68 = load i32, ptr %8, align 4
  %69 = sext i32 %68 to i64
  %70 = getelementptr inbounds i8, ptr %67, i64 %69
  %71 = load i8, ptr %70, align 1
  %72 = sext i8 %71 to i32
  %73 = load i8, ptr %12, align 1
  %74 = sext i8 %73 to i32
  %75 = icmp eq i32 %72, %74
  br i1 %75, label %76, label %77

76:                                               ; preds = %66
  br label %202

77:                                               ; preds = %66, %63
  %78 = load ptr, ptr %6, align 8
  %79 = load i32, ptr %8, align 4
  %80 = sext i32 %79 to i64
  %81 = getelementptr inbounds i8, ptr %78, i64 %80
  %82 = load i8, ptr %81, align 1
  %83 = sext i8 %82 to i32
  %84 = icmp eq i32 %83, 34
  br i1 %84, label %93, label %85

85:                                               ; preds = %77
  %86 = load ptr, ptr %6, align 8
  %87 = load i32, ptr %8, align 4
  %88 = sext i32 %87 to i64
  %89 = getelementptr inbounds i8, ptr %86, i64 %88
  %90 = load i8, ptr %89, align 1
  %91 = sext i8 %90 to i32
  %92 = icmp eq i32 %91, 39
  br i1 %92, label %93, label %98

93:                                               ; preds = %85, %77
  %94 = load ptr, ptr %6, align 8
  %95 = load i32, ptr %8, align 4
  %96 = sext i32 %95 to i64
  %97 = getelementptr inbounds i8, ptr %94, i64 %96
  store i8 96, ptr %97, align 1
  br label %198

98:                                               ; preds = %85
  %99 = load ptr, ptr %6, align 8
  %100 = load i32, ptr %8, align 4
  %101 = sext i32 %100 to i64
  %102 = getelementptr inbounds i8, ptr %99, i64 %101
  %103 = load i8, ptr %102, align 1
  %104 = sext i8 %103 to i32
  %105 = icmp eq i32 %104, 91
  br i1 %105, label %106, label %107

106:                                              ; preds = %98
  store i8 1, ptr %15, align 1
  br label %197

107:                                              ; preds = %98
  %108 = load ptr, ptr %6, align 8
  %109 = load i32, ptr %8, align 4
  %110 = sext i32 %109 to i64
  %111 = getelementptr inbounds i8, ptr %108, i64 %110
  %112 = load i8, ptr %111, align 1
  %113 = sext i8 %112 to i32
  %114 = icmp eq i32 %113, 44
  br i1 %114, label %115, label %155

115:                                              ; preds = %107
  %116 = load i8, ptr %15, align 1, !range !16, !noundef !17
  %117 = trunc i8 %116 to i1
  br i1 %117, label %155, label %118

118:                                              ; preds = %115
  %119 = load i8, ptr %14, align 1, !range !16, !noundef !17
  %120 = trunc i8 %119 to i1
  br i1 %120, label %151, label %121

121:                                              ; preds = %118
  %122 = load ptr, ptr %6, align 8
  %123 = load i32, ptr %8, align 4
  %124 = add nsw i32 %123, 1
  %125 = sext i32 %124 to i64
  %126 = getelementptr inbounds i8, ptr %122, i64 %125
  %127 = load i8, ptr %126, align 1
  %128 = icmp ne i8 %127, 0
  br i1 %128, label %130, label %129

129:                                              ; preds = %121
  br label %202

130:                                              ; preds = %121
  %131 = load i32, ptr %8, align 4
  %132 = load i32, ptr %9, align 4
  %133 = icmp ne i32 %131, %132
  br i1 %133, label %134, label %148

134:                                              ; preds = %130
  %135 = load ptr, ptr %6, align 8
  %136 = load i32, ptr %9, align 4
  %137 = sext i32 %136 to i64
  %138 = getelementptr inbounds i8, ptr %135, i64 %137
  %139 = load i32, ptr %8, align 4
  %140 = load i32, ptr %9, align 4
  %141 = sub nsw i32 %139, %140
  %142 = sext i32 %141 to i64
  %143 = call ptr @xstrndup(ptr noundef %138, i64 noundef %142)
  store ptr %143, ptr %11, align 8
  %144 = load ptr, ptr %11, align 8
  %145 = load ptr, ptr %5, align 8
  %146 = load i8, ptr %7, align 1, !range !16, !noundef !17
  %147 = trunc i8 %146 to i1
  call void @_add_to_list(ptr noundef %144, ptr noundef %145, i1 noundef zeroext %147)
  br label %148

148:                                              ; preds = %134, %130
  %149 = load i32, ptr %8, align 4
  %150 = add nsw i32 %149, 1
  store i32 %150, ptr %9, align 4
  br label %154

151:                                              ; preds = %118
  store i8 0, ptr %14, align 1
  %152 = load i32, ptr %8, align 4
  %153 = add nsw i32 %152, 1
  store i32 %153, ptr %9, align 4
  br label %154

154:                                              ; preds = %151, %148
  br label %196

155:                                              ; preds = %115, %107
  %156 = load ptr, ptr %6, align 8
  %157 = load i32, ptr %8, align 4
  %158 = sext i32 %157 to i64
  %159 = getelementptr inbounds i8, ptr %156, i64 %158
  %160 = load i8, ptr %159, align 1
  %161 = sext i8 %160 to i32
  %162 = icmp eq i32 %161, 93
  br i1 %162, label %163, label %195

163:                                              ; preds = %155
  store i8 1, ptr %14, align 1
  store i8 0, ptr %15, align 1
  %164 = load ptr, ptr %6, align 8
  %165 = load i32, ptr %9, align 4
  %166 = sext i32 %165 to i64
  %167 = getelementptr inbounds i8, ptr %164, i64 %166
  %168 = load i32, ptr %8, align 4
  %169 = add nsw i32 %168, 1
  %170 = load i32, ptr %9, align 4
  %171 = sub nsw i32 %169, %170
  %172 = sext i32 %171 to i64
  %173 = call ptr @xstrndup(ptr noundef %167, i64 noundef %172)
  store ptr %173, ptr %11, align 8
  %174 = load ptr, ptr %11, align 8
  %175 = call ptr @hostlist_create(ptr noundef %174)
  store ptr %175, ptr %18, align 8
  %176 = icmp ne ptr %175, null
  br i1 %176, label %177, label %193

177:                                              ; preds = %163
  br label %178

178:                                              ; preds = %182, %177
  %179 = load ptr, ptr %18, align 8
  %180 = call ptr @hostlist_shift(ptr noundef %179)
  store ptr %180, ptr %17, align 8
  %181 = icmp ne ptr %180, null
  br i1 %181, label %182, label %192

182:                                              ; preds = %178
  %183 = load ptr, ptr %17, align 8
  %184 = call ptr @xstrdup(ptr noundef %183)
  store ptr %184, ptr %16, align 8
  %185 = load ptr, ptr %17, align 8
  call void @free(ptr noundef %185) #11
  %186 = load ptr, ptr %16, align 8
  %187 = load ptr, ptr %5, align 8
  %188 = load i8, ptr %7, align 1, !range !16, !noundef !17
  %189 = trunc i8 %188 to i1
  call void @_add_to_list(ptr noundef %186, ptr noundef %187, i1 noundef zeroext %189)
  %190 = load i32, ptr %8, align 4
  %191 = add nsw i32 %190, 1
  store i32 %191, ptr %9, align 4
  br label %178, !llvm.loop !22

192:                                              ; preds = %178
  br label %193

193:                                              ; preds = %192, %163
  %194 = load ptr, ptr %18, align 8
  call void @hostlist_destroy(ptr noundef %194)
  call void @slurm_xfree(ptr noundef %11)
  br label %195

195:                                              ; preds = %193, %155
  br label %196

196:                                              ; preds = %195, %154
  br label %197

197:                                              ; preds = %196, %106
  br label %198

198:                                              ; preds = %197, %93
  br label %199

199:                                              ; preds = %198
  %200 = load i32, ptr %8, align 4
  %201 = add nsw i32 %200, 1
  store i32 %201, ptr %8, align 4
  br label %56, !llvm.loop !23

202:                                              ; preds = %129, %76, %56
  %203 = load i32, ptr %10, align 4
  %204 = load ptr, ptr %5, align 8
  %205 = call i32 @list_count(ptr noundef %204)
  %206 = icmp eq i32 %203, %205
  br i1 %206, label %212, label %207

207:                                              ; preds = %202
  %208 = load i32, ptr %8, align 4
  %209 = load i32, ptr %9, align 4
  %210 = sub nsw i32 %208, %209
  %211 = icmp ne i32 %210, 0
  br i1 %211, label %212, label %226

212:                                              ; preds = %207, %202
  %213 = load ptr, ptr %6, align 8
  %214 = load i32, ptr %9, align 4
  %215 = sext i32 %214 to i64
  %216 = getelementptr inbounds i8, ptr %213, i64 %215
  %217 = load i32, ptr %8, align 4
  %218 = load i32, ptr %9, align 4
  %219 = sub nsw i32 %217, %218
  %220 = sext i32 %219 to i64
  %221 = call ptr @xstrndup(ptr noundef %216, i64 noundef %220)
  store ptr %221, ptr %11, align 8
  %222 = load ptr, ptr %11, align 8
  %223 = load ptr, ptr %5, align 8
  %224 = load i8, ptr %7, align 1, !range !16, !noundef !17
  %225 = trunc i8 %224 to i1
  call void @_add_to_list(ptr noundef %222, ptr noundef %223, i1 noundef zeroext %225)
  br label %226

226:                                              ; preds = %212, %207
  br label %227

227:                                              ; preds = %226, %25
  %228 = load ptr, ptr %5, align 8
  %229 = call i32 @list_count(ptr noundef %228)
  store i32 %229, ptr %4, align 4
  store i32 1, ptr %19, align 4
  br label %230

230:                                              ; preds = %227, %23
  call void @llvm.lifetime.end.p0(i64 8, ptr %18) #11
  call void @llvm.lifetime.end.p0(i64 8, ptr %17) #11
  call void @llvm.lifetime.end.p0(i64 8, ptr %16) #11
  call void @llvm.lifetime.end.p0(i64 1, ptr %15) #11
  call void @llvm.lifetime.end.p0(i64 1, ptr %14) #11
  call void @llvm.lifetime.end.p0(i64 4, ptr %13) #11
  call void @llvm.lifetime.end.p0(i64 1, ptr %12) #11
  call void @llvm.lifetime.end.p0(i64 8, ptr %11) #11
  call void @llvm.lifetime.end.p0(i64 4, ptr %10) #11
  call void @llvm.lifetime.end.p0(i64 4, ptr %9) #11
  call void @llvm.lifetime.end.p0(i64 4, ptr %8) #11
  %231 = load i32, ptr %4, align 4
  ret i32 %231
}