; Function Attrs: nounwind uwtable
define dso_local i32 @slurm_addto_char_list_with_case(ptr noundef %0, ptr noundef %1, i1 noundef zeroext %2) local_unnamed_addr #1 {
  %4 = alloca ptr, align 8
  call void @llvm.lifetime.start.p0(i64 8, ptr nonnull %4) #24
  store ptr null, ptr %4, align 8
  %.not = icmp eq ptr %0, null
  br i1 %.not, label %5, label %7

5:                                                ; preds = %3
  %6 = tail call i32 (ptr, ...) @error(ptr noundef nonnull @.str.1) #24
  br label %80

7:                                                ; preds = %3
  %.not82 = icmp eq ptr %1, null
  br i1 %.not82, label %78, label %8

8:                                                ; preds = %7
  %9 = load i8, ptr %1, align 1
  switch i8 %9, label %12 [
    i8 34, label %10
    i8 39, label %10
  ]

10:                                               ; preds = %8, %8
  %11 = zext nneg i8 %9 to i32
  br label %12

12:                                               ; preds = %8, %10
  %.075 = phi i32 [ %11, %10 ], [ 0, %8 ]
  %.not84.not = phi i1 [ true, %10 ], [ false, %8 ]
  %.067 = phi i32 [ 1, %10 ], [ 0, %8 ]
  %13 = tail call i32 @list_count(ptr noundef nonnull %0) #24
  %14 = zext nneg i32 %.067 to i64
  %15 = getelementptr inbounds nuw i8, ptr %1, i64 %14
  %16 = load i8, ptr %15, align 1
  %.not8397 = icmp eq i8 %16, 0
  %17 = sext i8 %16 to i32
  %18 = icmp eq i32 %.075, %17
  %or.cond98 = select i1 %.not84.not, i1 %18, i1 false
  %or.cond9599 = select i1 %.not8397, i1 true, i1 %or.cond98
  br i1 %or.cond9599, label %._crit_edge, label %.lr.ph104

.lr.ph104:                                        ; preds = %12, %.thread
  %indvars.iv = phi i64 [ %indvars.iv.next, %.thread ], [ %14, %12 ]
  %19 = phi i8 [ %64, %.thread ], [ %16, %12 ]
  %20 = phi ptr [ %63, %.thread ], [ %15, %12 ]
  %.1103 = phi i32 [ %62, %.thread ], [ %.067, %12 ]
  %.068102 = phi i32 [ %.3, %.thread ], [ %.067, %12 ]
  %.070101 = phi i1 [ %.171, %.thread ], [ false, %12 ]
  %.072100 = phi i1 [ %.173, %.thread ], [ false, %12 ]
  switch i8 %19, label %.thread.fold.split [
    i8 34, label %21
    i8 39, label %21
    i8 91, label %.thread
    i8 44, label %22
    i8 93, label %43
  ]

21:                                               ; preds = %.lr.ph104, %.lr.ph104
  store i8 96, ptr %20, align 1
  br label %.thread

22:                                               ; preds = %.lr.ph104
  br i1 %.070101, label %.thread, label %23

23:                                               ; preds = %22
  br i1 %.072100, label %41, label %24

24:                                               ; preds = %23
  %25 = add nuw nsw i64 %indvars.iv, 1
  %26 = getelementptr inbounds nuw i8, ptr %1, i64 %25
  %27 = load i8, ptr %26, align 1
  %.not85 = icmp eq i8 %27, 0
  %28 = trunc nuw nsw i64 %indvars.iv to i32
  br i1 %.not85, label %._crit_edge, label %29

29:                                               ; preds = %24
  %30 = zext i32 %.068102 to i64
  %.not86 = icmp eq i64 %indvars.iv, %30
  %31 = trunc nuw i64 %25 to i32
  br i1 %.not86, label %.thread, label %32

32:                                               ; preds = %29
  %33 = sext i32 %.068102 to i64
  %34 = getelementptr inbounds i8, ptr %1, i64 %33
  %35 = sub nsw i32 %28, %.068102
  %36 = sext i32 %35 to i64
  %37 = call ptr @xstrndup(ptr noundef nonnull %34, i64 noundef %36) #24
  store ptr %37, ptr %4, align 8
  call void @xstrtrim(ptr noundef %37) #24
  br i1 %2, label %38, label %_add_to_list.exit

38:                                               ; preds = %32
  %39 = call zeroext i1 @xstrtolower(ptr noundef %37) #24
  br label %_add_to_list.exit

_add_to_list.exit:                                ; preds = %32, %38
  %40 = call i32 @list_delete_all(ptr noundef nonnull %0, ptr noundef nonnull @slurm_find_char_exact_in_list, ptr noundef %37) #24
  call void @list_append(ptr noundef nonnull %0, ptr noundef %37) #24
  br label %.thread

41:                                               ; preds = %23
  %42 = add nuw nsw i32 %.1103, 1
  br label %.thread

43:                                               ; preds = %.lr.ph104
  %44 = sext i32 %.068102 to i64
  %45 = getelementptr inbounds i8, ptr %1, i64 %44
  %46 = trunc i64 %indvars.iv to i32
  %47 = add i32 %46, 1
  %48 = sub nsw i32 %47, %.068102
  %49 = sext i32 %48 to i64
  %50 = call ptr @xstrndup(ptr noundef nonnull %45, i64 noundef %49) #24
  store ptr %50, ptr %4, align 8
  %51 = call ptr @hostlist_create(ptr noundef %50) #24
  %.not87 = icmp eq ptr %51, null
  br i1 %.not87, label %.loopexit, label %.preheader

.preheader:                                       ; preds = %43
  %52 = call ptr @hostlist_shift(ptr noundef nonnull %51) #24
  %.not8896 = icmp eq ptr %52, null
  br i1 %.not8896, label %.loopexit, label %.lr.ph

.lr.ph:                                           ; preds = %.preheader
  br i1 %2, label %_add_to_list.exit92.us, label %_add_to_list.exit92

_add_to_list.exit92.us:                           ; preds = %.lr.ph, %_add_to_list.exit92.us
  %53 = phi ptr [ %57, %_add_to_list.exit92.us ], [ %52, %.lr.ph ]
  %54 = call ptr @xstrdup(ptr noundef nonnull %53) #24
  call void @free(ptr noundef nonnull %53) #24
  call void @xstrtrim(ptr noundef %54) #24
  %55 = call zeroext i1 @xstrtolower(ptr noundef %54) #24
  %56 = call i32 @list_delete_all(ptr noundef nonnull %0, ptr noundef nonnull @slurm_find_char_exact_in_list, ptr noundef %54) #24
  call void @list_append(ptr noundef nonnull %0, ptr noundef %54) #24
  %57 = call ptr @hostlist_shift(ptr noundef nonnull %51) #24
  %.not88.us = icmp eq ptr %57, null
  br i1 %.not88.us, label %.loopexit, label %_add_to_list.exit92.us, !llvm.loop !22

_add_to_list.exit92:                              ; preds = %.lr.ph, %_add_to_list.exit92
  %58 = phi ptr [ %61, %_add_to_list.exit92 ], [ %52, %.lr.ph ]
  %59 = call ptr @xstrdup(ptr noundef nonnull %58) #24
  call void @free(ptr noundef nonnull %58) #24
  call void @xstrtrim(ptr noundef %59) #24
  %60 = call i32 @list_delete_all(ptr noundef nonnull %0, ptr noundef nonnull @slurm_find_char_exact_in_list, ptr noundef %59) #24
  call void @list_append(ptr noundef nonnull %0, ptr noundef %59) #24
  %61 = call ptr @hostlist_shift(ptr noundef nonnull %51) #24
  %.not88 = icmp eq ptr %61, null
  br i1 %.not88, label %.loopexit, label %_add_to_list.exit92, !llvm.loop !22

.loopexit:                                        ; preds = %_add_to_list.exit92, %_add_to_list.exit92.us, %.preheader, %43
  %.169 = phi i32 [ %.068102, %43 ], [ %.068102, %.preheader ], [ %47, %_add_to_list.exit92.us ], [ %47, %_add_to_list.exit92 ]
  call void @hostlist_destroy(ptr noundef %51) #24
  call void @slurm_xfree(ptr noundef nonnull %4) #24
  br label %.thread

.thread.fold.split:                               ; preds = %.lr.ph104
  br label %.thread

.thread:                                          ; preds = %.lr.ph104, %.thread.fold.split, %22, %29, %_add_to_list.exit, %21, %41, %.loopexit
  %.173 = phi i1 [ %.072100, %21 ], [ true, %.loopexit ], [ false, %41 ], [ %.072100, %.lr.ph104 ], [ false, %_add_to_list.exit ], [ false, %29 ], [ %.072100, %22 ], [ %.072100, %.thread.fold.split ]
  %.171 = phi i1 [ %.070101, %21 ], [ false, %.loopexit ], [ false, %41 ], [ true, %.lr.ph104 ], [ false, %_add_to_list.exit ], [ false, %29 ], [ true, %22 ], [ %.070101, %.thread.fold.split ]
  %.3 = phi i32 [ %.068102, %21 ], [ %.169, %.loopexit ], [ %42, %41 ], [ %.068102, %.lr.ph104 ], [ %31, %_add_to_list.exit ], [ %31, %29 ], [ %.068102, %22 ], [ %.068102, %.thread.fold.split ]
  %indvars.iv.next = add nuw nsw i64 %indvars.iv, 1
  %62 = add nuw nsw i32 %.1103, 1
  %63 = getelementptr inbounds nuw i8, ptr %1, i64 %indvars.iv.next
  %64 = load i8, ptr %63, align 1
  %.not83 = icmp eq i8 %64, 0
  %65 = sext i8 %64 to i32
  %66 = icmp eq i32 %.075, %65
  %or.cond = select i1 %.not84.not, i1 %66, i1 false
  %or.cond95 = select i1 %.not83, i1 true, i1 %or.cond
  br i1 %or.cond95, label %._crit_edge, label %.lr.ph104, !llvm.loop !23

._crit_edge:                                      ; preds = %.thread, %24, %12
  %.068.lcssa = phi i32 [ %.067, %12 ], [ %.068102, %24 ], [ %.3, %.thread ]
  %.1.lcssa = phi i32 [ %.067, %12 ], [ %28, %24 ], [ %62, %.thread ]
  %67 = call i32 @list_count(ptr noundef nonnull %0) #24
  %68 = icmp ne i32 %13, %67
  %.not89 = icmp eq i32 %.1.lcssa, %.068.lcssa
  %or.cond91 = select i1 %68, i1 %.not89, i1 false
  br i1 %or.cond91, label %78, label %69

69:                                               ; preds = %._crit_edge
  %70 = sext i32 %.068.lcssa to i64
  %71 = getelementptr inbounds i8, ptr %1, i64 %70
  %72 = sub nsw i32 %.1.lcssa, %.068.lcssa
  %73 = sext i32 %72 to i64
  %74 = call ptr @xstrndup(ptr noundef nonnull %71, i64 noundef %73) #24
  store ptr %74, ptr %4, align 8
  call void @xstrtrim(ptr noundef %74) #24
  br i1 %2, label %75, label %_add_to_list.exit93

75:                                               ; preds = %69
  %76 = call zeroext i1 @xstrtolower(ptr noundef %74) #24
  br label %_add_to_list.exit93

_add_to_list.exit93:                              ; preds = %69, %75
  %77 = call i32 @list_delete_all(ptr noundef nonnull %0, ptr noundef nonnull @slurm_find_char_exact_in_list, ptr noundef %74) #24
  call void @list_append(ptr noundef nonnull %0, ptr noundef %74) #24
  br label %78

78:                                               ; preds = %._crit_edge, %_add_to_list.exit93, %7
  %79 = call i32 @list_count(ptr noundef nonnull %0) #24
  br label %80

80:                                               ; preds = %78, %5
  %.0 = phi i32 [ %79, %78 ], [ 0, %5 ]
  call void @llvm.lifetime.end.p0(i64 8, ptr nonnull %4) #24
  ret i32 %.0
}